target datalayout = "e-m:e-p270:32:32-p271:32:32-p272:64:64-i64:64-i128:128-f80:128-n8:16:32:64-S128"
target triple = "x86_64-pc-linux-gnu"

@proto_register_ppi_gps.ett = internal global [3 x ptr] [ptr @ett_ppi_gps, ptr @ett_ppi_gps_present, ptr @ett_ppi_gps_gpsflags_flags], align 16
@.str.112 = private unnamed_addr constant [31 x i8] c"PPI Geotagging GPS tag decoder\00", align 1
@.str.113 = private unnamed_addr constant [16 x i8] c"PPI GPS Decoder\00", align 1
@.str.114 = private unnamed_addr constant [8 x i8] c"ppi_gps\00", align 1
@proto_ppi_gps = internal global i32 0, align 4

; Function Attrs: null_pointer_is_valid sspstrong uwtable
define hidden void @proto_register_ppi_gps() #0 {
  %1 = alloca ptr, align 8
  call void @llvm.lifetime.start.p0(i64 8, ptr %1) #3
  %2 = call i32 @proto_register_protocol(ptr noundef @.str.112, ptr noundef @.str.113, ptr noundef @.str.114)
  store i32 %2, ptr @proto_ppi_gps, align 4
  %3 = load i32, ptr @proto_ppi_gps, align 4
  call void @proto_register_field_array(i32 noundef %3, ptr noundef @proto_register_ppi_gps.hf, i32 noundef 40)
  call void @proto_register_subtree_array(ptr noundef @proto_register_ppi_gps.ett, i32 noundef 3)
  %4 = load i32, ptr @proto_ppi_gps, align 4
  %5 = call ptr @expert_register_protocol(i32 noundef %4)
  store ptr %5, ptr %1, align 8
  %6 = load ptr, ptr %1, align 8
  call void @expert_register_field_array(ptr noundef %6, ptr noundef @proto_register_ppi_gps.ei, i32 noundef 3)
  %7 = load i32, ptr @proto_ppi_gps, align 4
  %8 = call ptr @register_dissector(ptr noundef @.str.114, ptr noundef @dissect_ppi_gps, i32 noundef %7)
  call void @llvm.lifetime.end.p0(i64 8, ptr %1) #3
  ret void
}